target datalayout = "e-m:e-p270:32:32-p271:32:32-p272:64:64-i64:64-i128:128-f80:128-n8:16:32:64-S128"
target triple = "x86_64-pc-linux-gnu"

%struct.AVFilterContext = type { ptr, ptr, ptr, ptr, ptr, i32, ptr, ptr, i32, ptr, ptr, i32, i32, ptr, ptr, ptr, ptr, i32, ptr, i32, i32 }
%struct.FIREqualizerContext = type { ptr, ptr, ptr, ptr, ptr, ptr, ptr, ptr, ptr, ptr, ptr, ptr, ptr, ptr, ptr, i32, i32, i32, ptr, ptr, ptr, ptr, ptr, ptr, ptr, ptr, ptr, ptr, ptr, i32, i32, i64, i32, i32, ptr, ptr, ptr, ptr, double, double, i32, i32, i32, i32, i32, ptr, i32, i32, i32, i32, i32, [4096 x %struct.GainEntry] }
%struct.GainEntry = type { double, double }

@.str.16 = private unnamed_addr constant [23 x i8] c"entry table overflow.\0A\00", align 1
@.str.17 = private unnamed_addr constant [25 x i8] c"nan frequency (%g, %g).\0A\00", align 1
@.str.18 = private unnamed_addr constant [30 x i8] c"unsorted frequency (%g, %g).\0A\00", align 1

; Function Attrs: nounwind uwtable
define internal double @entry_func(ptr noundef %0, double noundef %1, double noundef %2) #1 {
  %4 = alloca double, align 8
  %5 = alloca ptr, align 8
  %6 = alloca double, align 8
  %7 = alloca double, align 8
  %8 = alloca ptr, align 8
  %9 = alloca ptr, align 8
  %10 = alloca i32, align 4
  store ptr %0, ptr %5, align 8, !tbaa !149
  store double %1, ptr %6, align 8, !tbaa !137
  store double %2, ptr %7, align 8, !tbaa !137
  call void @llvm.lifetime.start.p0(i64 8, ptr %8) #12
  %11 = load ptr, ptr %5, align 8, !tbaa !149
  store ptr %11, ptr %8, align 8, !tbaa !4
  call void @llvm.lifetime.start.p0(i64 8, ptr %9) #12
  %12 = load ptr, ptr %8, align 8, !tbaa !4
  %13 = getelementptr inbounds nuw %struct.AVFilterContext, ptr %12, i32 0, i32 9
  %14 = load ptr, ptr %13, align 8, !tbaa !9
  store ptr %14, ptr %9, align 8, !tbaa !22
  %15 = load ptr, ptr %9, align 8, !tbaa !22
  %16 = getelementptr inbounds nuw %struct.FIREqualizerContext, ptr %15, i32 0, i32 49
  %17 = load i32, ptr %16, align 4, !tbaa !135
  %18 = icmp sge i32 %17, 4096
  br i1 %18, label %19, label %23

19:                                               ; preds = %3
  %20 = load ptr, ptr %8, align 8, !tbaa !4
  call void (ptr, i32, ptr, ...) @av_log(ptr noundef %20, i32 noundef 16, ptr noundef @.str.16)
  %21 = load ptr, ptr %9, align 8, !tbaa !22
  %22 = getelementptr inbounds nuw %struct.FIREqualizerContext, ptr %21, i32 0, i32 50
  store i32 -22, ptr %22, align 8, !tbaa !136
  store double 0.000000e+00, ptr %4, align 8
  store i32 1, ptr %10, align 4
  br label %79

23:                                               ; preds = %3
  %24 = load double, ptr %6, align 8, !tbaa !137
  %25 = call i1 @llvm.is.fpclass.f64(double %24, i32 3)
  br i1 %25, label %26, label %32

26:                                               ; preds = %23
  %27 = load ptr, ptr %8, align 8, !tbaa !4
  %28 = load double, ptr %6, align 8, !tbaa !137
  %29 = load double, ptr %7, align 8, !tbaa !137
  call void (ptr, i32, ptr, ...) @av_log(ptr noundef %27, i32 noundef 16, ptr noundef @.str.17, double noundef %28, double noundef %29)
  %30 = load ptr, ptr %9, align 8, !tbaa !22
  %31 = getelementptr inbounds nuw %struct.FIREqualizerContext, ptr %30, i32 0, i32 50
  store i32 -22, ptr %31, align 8, !tbaa !136
  store double 0.000000e+00, ptr %4, align 8
  store i32 1, ptr %10, align 4
  br label %79

32:                                               ; preds = %23
  %33 = load ptr, ptr %9, align 8, !tbaa !22
  %34 = getelementptr inbounds nuw %struct.FIREqualizerContext, ptr %33, i32 0, i32 49
  %35 = load i32, ptr %34, align 4, !tbaa !135
  %36 = icmp sgt i32 %35, 0
  br i1 %36, label %37, label %56

37:                                               ; preds = %32
  %38 = load double, ptr %6, align 8, !tbaa !137
  %39 = load ptr, ptr %9, align 8, !tbaa !22
  %40 = getelementptr inbounds nuw %struct.FIREqualizerContext, ptr %39, i32 0, i32 51
  %41 = load ptr, ptr %9, align 8, !tbaa !22
  %42 = getelementptr inbounds nuw %struct.FIREqualizerContext, ptr %41, i32 0, i32 49
  %43 = load i32, ptr %42, align 4, !tbaa !135
  %44 = sub nsw i32 %43, 1
  %45 = sext i32 %44 to i64
  %46 = getelementptr inbounds [4096 x %struct.GainEntry], ptr %40, i64 0, i64 %45
  %47 = getelementptr inbounds nuw %struct.GainEntry, ptr %46, i32 0, i32 0
  %48 = load double, ptr %47, align 8, !tbaa !150
  %49 = fcmp nsz ole double %38, %48
  br i1 %49, label %50, label %56

50:                                               ; preds = %37
  %51 = load ptr, ptr %8, align 8, !tbaa !4
  %52 = load double, ptr %6, align 8, !tbaa !137
  %53 = load double, ptr %7, align 8, !tbaa !137
  call void (ptr, i32, ptr, ...) @av_log(ptr noundef %51, i32 noundef 16, ptr noundef @.str.18, double noundef %52, double noundef %53)
  %54 = load ptr, ptr %9, align 8, !tbaa !22
  %55 = getelementptr inbounds nuw %struct.FIREqualizerContext, ptr %54, i32 0, i32 50
  store i32 -22, ptr %55, align 8, !tbaa !136
  store double 0.000000e+00, ptr %4, align 8
  store i32 1, ptr %10, align 4
  br label %79

56:                                               ; preds = %37, %32
  %57 = load double, ptr %6, align 8, !tbaa !137
  %58 = load ptr, ptr %9, align 8, !tbaa !22
  %59 = getelementptr inbounds nuw %struct.FIREqualizerContext, ptr %58, i32 0, i32 51
  %60 = load ptr, ptr %9, align 8, !tbaa !22
  %61 = getelementptr inbounds nuw %struct.FIREqualizerContext, ptr %60, i32 0, i32 49
  %62 = load i32, ptr %61, align 4, !tbaa !135
  %63 = sext i32 %62 to i64
  %64 = getelementptr inbounds [4096 x %struct.GainEntry], ptr %59, i64 0, i64 %63
  %65 = getelementptr inbounds nuw %struct.GainEntry, ptr %64, i32 0, i32 0
  store double %57, ptr %65, align 8, !tbaa !150
  %66 = load double, ptr %7, align 8, !tbaa !137
  %67 = load ptr, ptr %9, align 8, !tbaa !22
  %68 = getelementptr inbounds nuw %struct.FIREqualizerContext, ptr %67, i32 0, i32 51
  %69 = load ptr, ptr %9, align 8, !tbaa !22
  %70 = getelementptr inbounds nuw %struct.FIREqualizerContext, ptr %69, i32 0, i32 49
  %71 = load i32, ptr %70, align 4, !tbaa !135
  %72 = sext i32 %71 to i64
  %73 = getelementptr inbounds [4096 x %struct.GainEntry], ptr %68, i64 0, i64 %72
  %74 = getelementptr inbounds nuw %struct.GainEntry, ptr %73, i32 0, i32 1
  store double %66, ptr %74, align 8, !tbaa !152
  %75 = load ptr, ptr %9, align 8, !tbaa !22
  %76 = getelementptr inbounds nuw %struct.FIREqualizerContext, ptr %75, i32 0, i32 49
  %77 = load i32, ptr %76, align 4, !tbaa !135
  %78 = add nsw i32 %77, 1
  store i32 %78, ptr %76, align 4, !tbaa !135
  store double 0.000000e+00, ptr %4, align 8
  store i32 1, ptr %10, align 4
  br label %79

79:                                               ; preds = %56, %50, %26, %19
  call void @llvm.lifetime.end.p0(i64 8, ptr %9) #12
  call void @llvm.lifetime.end.p0(i64 8, ptr %8) #12
  %80 = load double, ptr %4, align 8
  ret double %80
}