; Function Attrs: nounwind uwtable
define internal noundef double @entry_func(ptr noundef %0, double noundef %1, double noundef %2) #1 {
  %4 = getelementptr inbounds nuw i8, ptr %0, i64 72
  %5 = load ptr, ptr %4, align 8, !tbaa !4
  %6 = getelementptr inbounds nuw i8, ptr %5, i64 340
  %7 = load i32, ptr %6, align 4, !tbaa !119
  %8 = icmp sgt i32 %7, 4095
  br i1 %8, label %9, label %11

9:                                                ; preds = %3
  tail call void (ptr, i32, ptr, ...) @av_log(ptr noundef nonnull %0, i32 noundef 16, ptr noundef nonnull @.str.16) #14
  %10 = getelementptr inbounds nuw i8, ptr %5, i64 344
  store i32 -22, ptr %10, align 8, !tbaa !120
  br label %33

11:                                               ; preds = %3
  %12 = fcmp uno double %1, 0.000000e+00
  br i1 %12, label %13, label %15

13:                                               ; preds = %11
  tail call void (ptr, i32, ptr, ...) @av_log(ptr noundef nonnull %0, i32 noundef 16, ptr noundef nonnull @.str.17, double noundef %1, double noundef %2) #14
  %14 = getelementptr inbounds nuw i8, ptr %5, i64 344
  store i32 -22, ptr %14, align 8, !tbaa !120
  br label %33

15:                                               ; preds = %11
  %16 = icmp sgt i32 %7, 0
  br i1 %16, label %17, label %26

17:                                               ; preds = %15
  %18 = getelementptr inbounds nuw i8, ptr %5, i64 352
  %19 = add nsw i32 %7, -1
  %20 = zext nneg i32 %19 to i64
  %21 = getelementptr inbounds nuw [4096 x %struct.GainEntry], ptr %18, i64 0, i64 %20
  %22 = load double, ptr %21, align 8, !tbaa !146
  %23 = fcmp nsz ugt double %1, %22
  br i1 %23, label %26, label %24

24:                                               ; preds = %17
  tail call void (ptr, i32, ptr, ...) @av_log(ptr noundef nonnull %0, i32 noundef 16, ptr noundef nonnull @.str.18, double noundef %1, double noundef %2) #14
  %25 = getelementptr inbounds nuw i8, ptr %5, i64 344
  store i32 -22, ptr %25, align 8, !tbaa !120
  br label %33

26:                                               ; preds = %17, %15
  %27 = getelementptr inbounds nuw i8, ptr %5, i64 352
  %28 = sext i32 %7 to i64
  %29 = getelementptr inbounds [4096 x %struct.GainEntry], ptr %27, i64 0, i64 %28
  store double %1, ptr %29, align 8, !tbaa !146
  %.idx = shl nsw i64 %28, 4
  %30 = getelementptr i8, ptr %27, i64 %.idx
  %31 = getelementptr i8, ptr %30, i64 8
  store double %2, ptr %31, align 8, !tbaa !148
  %32 = add nsw i32 %7, 1
  store i32 %32, ptr %6, align 4, !tbaa !119
  br label %33

33:                                               ; preds = %26, %24, %13, %9
  ret double 0.000000e+00
}